target datalayout = "e-m:e-p270:32:32-p271:32:32-p272:64:64-i64:64-i128:128-f80:128-n8:16:32:64-S128"
target triple = "x86_64-pc-linux-gnu"

@dh_ffdhe2048_g = internal constant [1 x i8] c"\02", align 1

; Function Attrs: nounwind uwtable
define i32 @wc_DhCmpNamedKey(i32 noundef %0, i32 noundef %1, ptr noundef %2, i32 noundef %3, ptr noundef %4, i32 noundef %5, ptr noundef %6, i32 noundef %7) #0 {
  %9 = alloca i32, align 4
  %10 = alloca i32, align 4
  %11 = alloca ptr, align 8
  %12 = alloca i32, align 4
  %13 = alloca ptr, align 8
  %14 = alloca i32, align 4
  %15 = alloca ptr, align 8
  %16 = alloca i32, align 4
  %17 = alloca ptr, align 8
  %18 = alloca ptr, align 8
  %19 = alloca ptr, align 8
  %20 = alloca i32, align 4
  %21 = alloca i32, align 4
  %22 = alloca i32, align 4
  %23 = alloca i32, align 4
  %24 = alloca i32, align 4
  store i32 %0, ptr %9, align 4, !tbaa !9
  store i32 %1, ptr %10, align 4, !tbaa !9
  store ptr %2, ptr %11, align 8, !tbaa !16
  store i32 %3, ptr %12, align 4, !tbaa !9
  store ptr %4, ptr %13, align 8, !tbaa !16
  store i32 %5, ptr %14, align 4, !tbaa !9
  store ptr %6, ptr %15, align 8, !tbaa !16
  store i32 %7, ptr %16, align 4, !tbaa !9
  call void @llvm.lifetime.start.p0(i64 8, ptr %17) #9
  store ptr null, ptr %17, align 8, !tbaa !16
  call void @llvm.lifetime.start.p0(i64 8, ptr %18) #9
  store ptr null, ptr %18, align 8, !tbaa !16
  call void @llvm.lifetime.start.p0(i64 8, ptr %19) #9
  store ptr null, ptr %19, align 8, !tbaa !16
  call void @llvm.lifetime.start.p0(i64 4, ptr %20) #9
  store i32 0, ptr %20, align 4, !tbaa !9
  call void @llvm.lifetime.start.p0(i64 4, ptr %21) #9
  store i32 0, ptr %21, align 4, !tbaa !9
  call void @llvm.lifetime.start.p0(i64 4, ptr %22) #9
  store i32 0, ptr %22, align 4, !tbaa !9
  call void @llvm.lifetime.start.p0(i64 4, ptr %23) #9
  store i32 0, ptr %23, align 4, !tbaa !9
  call void @llvm.lifetime.start.p0(i64 4, ptr %24) #9
  store i32 1, ptr %24, align 4, !tbaa !9
  %25 = load i32, ptr %9, align 4, !tbaa !9
  switch i32 %25, label %27 [
    i32 256, label %26
  ]

26:                                               ; preds = %8
  store ptr @dh_ffdhe2048_p, ptr %17, align 8, !tbaa !16
  store i32 256, ptr %20, align 4, !tbaa !9
  store ptr @dh_ffdhe2048_g, ptr %19, align 8, !tbaa !16
  store i32 1, ptr %22, align 4, !tbaa !9
  br label %28

27:                                               ; preds = %8
  store i32 0, ptr %24, align 4, !tbaa !9
  br label %28

28:                                               ; preds = %27, %26
  %29 = load i32, ptr %24, align 4, !tbaa !9
  %30 = icmp ne i32 %29, 0
  br i1 %30, label %31, label %73

31:                                               ; preds = %28
  %32 = load i32, ptr %12, align 4, !tbaa !9
  %33 = load i32, ptr %20, align 4, !tbaa !9
  %34 = icmp eq i32 %32, %33
  br i1 %34, label %35, label %70

35:                                               ; preds = %31
  %36 = load i32, ptr %14, align 4, !tbaa !9
  %37 = load i32, ptr %22, align 4, !tbaa !9
  %38 = icmp eq i32 %36, %37
  br i1 %38, label %39, label %70

39:                                               ; preds = %35
  %40 = load i32, ptr %10, align 4, !tbaa !9
  %41 = icmp ne i32 %40, 0
  br i1 %41, label %56, label %42

42:                                               ; preds = %39
  %43 = load ptr, ptr %18, align 8, !tbaa !16
  %44 = icmp ne ptr %43, null
  br i1 %44, label %45, label %70

45:                                               ; preds = %42
  %46 = load i32, ptr %16, align 4, !tbaa !9
  %47 = load i32, ptr %21, align 4, !tbaa !9
  %48 = icmp eq i32 %46, %47
  br i1 %48, label %49, label %70

49:                                               ; preds = %45
  %50 = load ptr, ptr %15, align 8, !tbaa !16
  %51 = load ptr, ptr %18, align 8, !tbaa !16
  %52 = load i32, ptr %21, align 4, !tbaa !9
  %53 = zext i32 %52 to i64
  %54 = call i32 @memcmp(ptr noundef %50, ptr noundef %51, i64 noundef %53) #10
  %55 = icmp eq i32 %54, 0
  br i1 %55, label %56, label %70

56:                                               ; preds = %49, %39
  %57 = load ptr, ptr %11, align 8, !tbaa !16
  %58 = load ptr, ptr %17, align 8, !tbaa !16
  %59 = load i32, ptr %20, align 4, !tbaa !9
  %60 = zext i32 %59 to i64
  %61 = call i32 @memcmp(ptr noundef %57, ptr noundef %58, i64 noundef %60) #10
  %62 = icmp eq i32 %61, 0
  br i1 %62, label %63, label %70

63:                                               ; preds = %56
  %64 = load ptr, ptr %13, align 8, !tbaa !16
  %65 = load ptr, ptr %19, align 8, !tbaa !16
  %66 = load i32, ptr %22, align 4, !tbaa !9
  %67 = zext i32 %66 to i64
  %68 = call i32 @memcmp(ptr noundef %64, ptr noundef %65, i64 noundef %67) #10
  %69 = icmp eq i32 %68, 0
  br label %70

70:                                               ; preds = %63, %56, %49, %45, %42, %35, %31
  %71 = phi i1 [ false, %56 ], [ false, %49 ], [ false, %45 ], [ false, %42 ], [ false, %35 ], [ false, %31 ], [ %69, %63 ]
  %72 = zext i1 %71 to i32
  store i32 %72, ptr %23, align 4, !tbaa !9
  br label %73

73:                                               ; preds = %70, %28
  %74 = load i32, ptr %23, align 4, !tbaa !9
  call void @llvm.lifetime.end.p0(i64 4, ptr %24) #9
  call void @llvm.lifetime.end.p0(i64 4, ptr %23) #9
  call void @llvm.lifetime.end.p0(i64 4, ptr %22) #9
  call void @llvm.lifetime.end.p0(i64 4, ptr %21) #9
  call void @llvm.lifetime.end.p0(i64 4, ptr %20) #9
  call void @llvm.lifetime.end.p0(i64 8, ptr %19) #9
  call void @llvm.lifetime.end.p0(i64 8, ptr %18) #9
  call void @llvm.lifetime.end.p0(i64 8, ptr %17) #9
  ret i32 %74
}