; Function Attrs: mustprogress nofree nounwind willreturn memory(argmem: read) uwtable
define range(i32 0, 2) i32 @wc_DhCmpNamedKey(i32 noundef %0, i32 noundef %1, ptr noundef readonly captures(none) %2, i32 noundef %3, ptr noundef readonly captures(none) %4, i32 noundef %5, ptr noundef readnone captures(none) %6, i32 noundef %7) local_unnamed_addr #6 {
  %cond.not = icmp eq i32 %0, 256
  br i1 %cond.not, label %9, label %17

9:                                                ; preds = %8
  %10 = icmp ne i32 %3, 256
  %11 = icmp ne i32 %5, 1
  %or.cond.not29 = or i1 %10, %11
  %.not = icmp eq i32 %1, 0
  %or.cond26 = or i1 %.not, %or.cond.not29
  br i1 %or.cond26, label %17, label %12

12:                                               ; preds = %9
  %bcmp = tail call i32 @bcmp(ptr noundef nonnull dereferenceable(256) %2, ptr noundef nonnull dereferenceable(256) @dh_ffdhe2048_p, i64 256)
  %13 = icmp eq i32 %bcmp, 0
  br i1 %13, label %14, label %17

14:                                               ; preds = %12
  %lhsc = load i8, ptr %4, align 1
  %15 = icmp eq i8 %lhsc, 2
  %16 = zext i1 %15 to i32
  br label %17

17:                                               ; preds = %9, %12, %14, %8
  %.019 = phi i32 [ 0, %8 ], [ 0, %12 ], [ 0, %9 ], [ %16, %14 ]
  ret i32 %.019
}